(dp0
S'BERTOS_PATH'
p1
S'../../../..'
p2
sS'SELECTED_FREQ'
p3
V50000000
p4
sS'WIZARD_VERSION'
p5
I3
sS'PROJECT_NAME'
p6
Vgps
p7
sS'TOOLCHAIN'
p8
(dp9
S'target'
p10
Varm-none-eabi
p11
sS'thread'
p12
Vsingle
p13
sS'configured'
p14
V/scratch/julian/2010q1-release-eabi-lite/src/gcc-4.4-2010q1/configure --build=i686-pc-linux-gnu --host=i686-pc-linux-gnu --target=arm-none-eabi --enable-threads --disable-libmudflap --disable-libssp --disable-libstdcxx-pch --enable-extra-sgxxlite-multilibs --with-gnu-as --with-gnu-ld --with-specs='%{O2:%{!fno-remove-local-statics: -fremove-local-statics}} %{O*:%{O|O0|O1|O2|Os:;:%{!fno-remove-local-statics: -fremove-local-statics}}}' --enable-languages=c,c++ --disable-shared --disable-lto --with-newlib --with-pkgversion='Sourcery G++ Lite 2010q1-188' --with-bugurl=https://support.codesourcery.com/GNUToolchain/ --disable-nls --prefix=/opt/codesourcery --with-headers=yes --with-sysroot=/opt/codesourcery/arm-none-eabi --with-build-sysroot=/scratch/julian/2010q1-release-eabi-lite/install/arm-none-eabi --with-gmp=/scratch/julian/2010q1-release-eabi-lite/obj/host-libs-2010q1-188-arm-none-eabi-i686-pc-linux-gnu/usr --with-mpfr=/scratch/julian/2010q1-release-eabi-lite/obj/host-libs-2010q1-188-arm-none-eabi-i686-pc-linux-gnu/usr --with-ppl=/scratch/julian/2010q1-release-eabi-lite/obj/host-libs-2010q1-188-arm-none-eabi-i686-pc-linux-gnu/usr --with-host-libstdcxx='-static-libgcc -Wl,-Bstatic,-lstdc++,-Bdynamic -lm' --with-cloog=/scratch/julian/2010q1-release-eabi-lite/obj/host-libs-2010q1-188-arm-none-eabi-i686-pc-linux-gnu/usr --disable-libgomp --enable-poison-system-directories --with-build-time-tools=/scratch/julian/2010q1-release-eabi-lite/install/arm-none-eabi/bin --with-build-time-tools=/scratch/julian/2010q1-release-eabi-lite/install/arm-none-eabi/bin
p15
sS'version'
p16
V4.4.1
p17
sS'build'
p18
VSourcery G++ Lite 2010q1-188
p19
sS'path'
p20
V/localhome/toolchain/arm/bin/arm-none-eabi-gcc
p21
ssS'ENABLED_MODULES'
p22
(lp23
S'kernel'
p24
aS'ser'
p25
aS'text'
p26
aS'kbd'
p27
aS'kblock'
p28
aS'formatwr'
p29
aS'flash'
p30
aS'text_format'
p31
aS'semaphores'
p32
aS'kfile'
p33
aS'lcd_rit128x96'
p34
aS'heap'
p35
aS'sprintf'
p36
aS'signal'
p37
aS'timer'
p38
aS'debug'
p39
aS'kfile_block'
p40
aS'nmea'
p41
asS'CPU_NAME'
p42
VLM3S1968
p43
sS'PROJECT_HW_PATH'
p44
S'../..'
p45
sS'PROJECT_SRC_PATH'
p46
S'.'
p47
sS'PRESET'
p48
I01
sS'OUTPUT'
p49
(lp50
S'codelite'
p51
as.