(dp0
S'BERTOS_PATH'
p1
S'../../../..'
p2
sS'SELECTED_FREQ'
p3
V48000000
p4
sS'WIZARD_VERSION'
p5
I3
sS'PROJECT_NAME'
p6
Vempty
p7
sS'TOOLCHAIN'
p8
(dp9
Vtarget
p10
Varm-none-eabi
p11
sVthread
p12
Vsingle
p13
sVconfigured
p14
V/scratch/julian/2010q1-release-eabi-lite/src/gcc-4.4-2010q1/configure --build=i686-pc-linux-gnu --host=i686-pc-linux-gnu --target=arm-none-eabi --enable-threads --disable-libmudflap --disable-libssp --disable-libstdcxx-pch --enable-extra-sgxxlite-multilibs --with-gnu-as --with-gnu-ld --with-specs='%{O2:%{!fno-remove-local-statics: -fremove-local-statics}} %{O*:%{O|O0|O1|O2|Os:;:%{!fno-remove-local-statics: -fremove-local-statics}}}' --enable-languages=c,c++ --disable-shared --disable-lto --with-newlib --with-pkgversion='Sourcery G++ Lite 2010q1-188' --with-bugurl=https://support.codesourcery.com/GNUToolchain/ --disable-nls --prefix=/opt/codesourcery --with-headers=yes --with-sysroot=/opt/codesourcery/arm-none-eabi --with-build-sysroot=/scratch/julian/2010q1-release-eabi-lite/install/arm-none-eabi --with-gmp=/scratch/julian/2010q1-release-eabi-lite/obj/host-libs-2010q1-188-arm-none-eabi-i686-pc-linux-gnu/usr --with-mpfr=/scratch/julian/2010q1-release-eabi-lite/obj/host-libs-2010q1-188-arm-none-eabi-i686-pc-linux-gnu/usr --with-ppl=/scratch/julian/2010q1-release-eabi-lite/obj/host-libs-2010q1-188-arm-none-eabi-i686-pc-linux-gnu/usr --with-host-libstdcxx='-static-libgcc -Wl,-Bstatic,-lstdc++,-Bdynamic -lm' --with-cloog=/scratch/julian/2010q1-release-eabi-lite/obj/host-libs-2010q1-188-arm-none-eabi-i686-pc-linux-gnu/usr --disable-libgomp --enable-poison-system-directories --with-build-time-tools=/scratch/julian/2010q1-release-eabi-lite/install/arm-none-eabi/bin --with-build-time-tools=/scratch/julian/2010q1-release-eabi-lite/install/arm-none-eabi/bin
p15
sVversion
p16
V4.4.1
p17
sVbuild
p18
VSourcery G++ Lite 2010q1-188
p19
sVpath
p20
V/localhome/toolchain/arm/bin/arm-none-eabi-gcc
p21
ssS'ENABLED_MODULES'
p22
(lp23
S'text'
p24
aS'kbd'
p25
aS'lcd_ili9225'
p26
aS'text_format'
p27
aS'sprintf'
p28
aS'debug'
p29
aS'timer'
p30
aS'gfx'
p31
aS'formatwr'
p32
asS'CPU_NAME'
p33
VSAM3N4
p34
sS'PROJECT_HW_PATH'
p35
S'../..'
p36
sS'PROJECT_SRC_PATH'
p37
S'.'
p38
sS'PRESET'
p39
I01
sS'OUTPUT'
p40
(lp41
S'codelite'
p42
as.