(dp0
S'BERTOS_PATH'
p1
S'../../../..'
p2
sS'SELECTED_FREQ'
p3
V72000000
p4
sS'WIZARD_VERSION'
p5
I3
sS'PROJECT_NAME'
p6
Vcontext_switch
p7
sS'TOOLCHAIN'
p8
(dp9
Vtarget
p10
Varm-none-eabi
p11
sVthread
p12
Vsingle
p13
sVconfigured
p14
V/scratch/julian/2009q3-respin-eabi-lite/src/gcc-4.4/configure --build=i686-pc-linux-gnu --host=i686-pc-linux-gnu --target=arm-none-eabi --enable-threads --disable-libmudflap --disable-libssp --disable-libstdcxx-pch --enable-extra-sgxxlite-multilibs --with-gnu-as --with-gnu-ld --with-specs='%{O2:%{!fno-remove-local-statics: -fremove-local-statics}} %{O*:%{O|O0|O1|O2|Os:;:%{!fno-remove-local-statics: -fremove-local-statics}}}' --enable-languages=c,c++ --disable-shared --disable-lto --with-newlib --with-pkgversion='Sourcery G++ Lite 2009q3-68' --with-bugurl=https://support.codesourcery.com/GNUToolchain/ --disable-nls --prefix=/opt/codesourcery --with-headers=yes --with-sysroot=/opt/codesourcery/arm-none-eabi --with-build-sysroot=/scratch/julian/2009q3-respin-eabi-lite/install/arm-none-eabi --with-gmp=/scratch/julian/2009q3-respin-eabi-lite/obj/host-libs-2009q3-68-arm-none-eabi-i686-pc-linux-gnu/usr --with-mpfr=/scratch/julian/2009q3-respin-eabi-lite/obj/host-libs-2009q3-68-arm-none-eabi-i686-pc-linux-gnu/usr --with-ppl=/scratch/julian/2009q3-respin-eabi-lite/obj/host-libs-2009q3-68-arm-none-eabi-i686-pc-linux-gnu/usr --with-host-libstdcxx='-static-libgcc -Wl,-Bstatic,-lstdc++,-Bdynamic -lm' --with-cloog=/scratch/julian/2009q3-respin-eabi-lite/obj/host-libs-2009q3-68-arm-none-eabi-i686-pc-linux-gnu/usr --disable-libgomp --enable-poison-system-directories --with-build-time-tools=/scratch/julian/2009q3-respin-eabi-lite/install/arm-none-eabi/bin --with-build-time-tools=/scratch/julian/2009q3-respin-eabi-lite/install/arm-none-eabi/bin
p15
sVversion
p16
V4.4.1
p17
sVbuild
p18
VSourcery G++ Lite 2009q3-68
p19
sVpath
p20
V/opt/sourcery/bin/arm-none-eabi-gcc
p21
ssS'ENABLED_MODULES'
p22
(lp23
S'ser'
p24
aS'kernel'
p25
aS'formatwr'
p26
aS'kfile'
p27
aS'context_switch'
p28
aS'heap'
p29
aS'signal'
p30
aS'timer'
p31
asS'CPU_NAME'
p32
VLPC2378
p33
sS'PROJECT_HW_PATH'
p34
S'../..'
p35
sS'PROJECT_SRC_PATH'
p36
S'.'
p37
sS'PRESET'
p38
I01
sS'OUTPUT'
p39
(lp40
s.