(dp0
S'BERTOS_PATH'
p1
S'../../../..'
p2
sS'SELECTED_FREQ'
p3
V24000000
p4
sS'WIZARD_VERSION'
p5
I3
sS'PROJECT_NAME'
p6
Vkernel
p7
sS'TOOLCHAIN'
p8
(dp9
Vtarget
p10
Varm-none-eabi
p11
sVthread
p12
Vsingle
p13
sVconfigured
p14
V/scratch/julian/2010q3-release-eabi-lite/src/gcc-4.5-2010.09/configure --build=i686-pc-linux-gnu --host=i686-pc-linux-gnu --target=arm-none-eabi --enable-threads --disable-libmudflap --disable-libssp --disable-libstdcxx-pch --enable-extra-sgxxlite-multilibs --with-gnu-as --with-gnu-ld --with-specs='%{save-temps: -fverbose-asm} -D__CS_SOURCERYGXX_MAJ__=2010 -D__CS_SOURCERYGXX_MIN__=9 -D__CS_SOURCERYGXX_REV__=51 %{O2:%{!fno-remove-local-statics: -fremove-local-statics}} %{O*:%{O|O0|O1|O2|Os:;:%{!fno-remove-local-statics: -fremove-local-statics}}}' --enable-languages=c,c++ --disable-shared --enable-lto --with-newlib --with-pkgversion='Sourcery G++ Lite 2010.09-51' --with-bugurl=https://support.codesourcery.com/GNUToolchain/ --disable-nls --prefix=/opt/codesourcery --with-headers=yes --with-sysroot=/opt/codesourcery/arm-none-eabi --with-build-sysroot=/scratch/julian/2010q3-release-eabi-lite/install/arm-none-eabi --with-gmp=/scratch/julian/2010q3-release-eabi-lite/obj/host-libs-2010.09-51-arm-none-eabi-i686-pc-linux-gnu/usr --with-mpfr=/scratch/julian/2010q3-release-eabi-lite/obj/host-libs-2010.09-51-arm-none-eabi-i686-pc-linux-gnu/usr --with-mpc=/scratch/julian/2010q3-release-eabi-lite/obj/host-libs-2010.09-51-arm-none-eabi-i686-pc-linux-gnu/usr --with-ppl=/scratch/julian/2010q3-release-eabi-lite/obj/host-libs-2010.09-51-arm-none-eabi-i686-pc-linux-gnu/usr --with-host-libstdcxx='-static-libgcc -Wl,-Bstatic,-lstdc++,-Bdynamic -lm' --with-cloog=/scratch/julian/2010q3-release-eabi-lite/obj/host-libs-2010.09-51-arm-none-eabi-i686-pc-linux-gnu/usr --with-libelf=/scratch/julian/2010q3-release-eabi-lite/obj/host-libs-2010.09-51-arm-none-eabi-i686-pc-linux-gnu/usr --disable-libgomp --enable-poison-system-directories --with-build-time-tools=/scratch/julian/2010q3-release-eabi-lite/install/arm-none-eabi/bin --with-build-time-tools=/scratch/julian/2010q3-release-eabi-lite/install/arm-none-eabi/bin
p15
sVversion
p16
V4.5.1
p17
sVbuild
p18
VSourcery G++ Lite 2010.09-51
p19
sVpath
p20
V/opt/CodeSourcery/arm-2010.09/bin/arm-none-eabi-gcc
p21
ssS'ENABLED_MODULES'
p22
(lp23
S'ser'
p24
aS'kernel'
p25
aS'monitor'
p26
aS'formatwr'
p27
aS'kfile'
p28
aS'semaphores'
p29
aS'msg'
p30
aS'heap'
p31
aS'signal'
p32
aS'timer'
p33
aS'debug'
p34
asS'CPU_NAME'
p35
VSTM32F100RB
p36
sS'PROJECT_HW_PATH'
p37
S'../..'
p38
sS'PROJECT_SRC_PATH'
p39
S'.'
p40
sS'PRESET'
p41
NsS'OUTPUT'
p42
(lp43
S'codelite'
p44
as.
